target datalayout = "e-m:e-p270:32:32-p271:32:32-p272:64:64-i64:64-i128:128-f80:128-n8:16:32:64-S128"
target triple = "x86_64-pc-linux-gnu"

%struct.FunctionCallInfoBaseData = type { ptr, ptr, ptr, i32, i8, i16, [0 x %struct.NullableDatum] }
%struct.NullableDatum = type { i64, i8 }
%struct.BrinValues = type { i16, i8, i8, ptr, i64, ptr, ptr }
%struct.FmgrInfo = type { ptr, i32, i16, i8, i8, i8, ptr, ptr, ptr }
%struct.ScanKeyData = type { i32, i16, i16, i32, i32, %struct.FmgrInfo, i64 }

@.str = private unnamed_addr constant [27 x i8] c"invalid strategy number %d\00", align 1
@.str.1 = private unnamed_addr constant [14 x i8] c"brin_minmax.c\00", align 1
@__func__.brin_minmax_consistent = private unnamed_addr constant [23 x i8] c"brin_minmax_consistent\00", align 1

; Function Attrs: inlinehint nounwind uwtable
define internal zeroext i1 @DatumGetBool(i64 noundef %0) #2 {
  %2 = alloca i64, align 8
  store i64 %0, ptr %2, align 8
  %3 = load i64, ptr %2, align 8
  %4 = icmp ne i64 %3, 0
  ret i1 %4
}

; Function Attrs: inlinehint nounwind uwtable
define internal ptr @DatumGetPointer(i64 noundef %0) #2 {
  %2 = alloca i64, align 8
  store i64 %0, ptr %2, align 8
  %3 = load i64, ptr %2, align 8
  %4 = inttoptr i64 %3 to ptr
  ret ptr %4
}

; Function Attrs: nounwind uwtable
define dso_local i64 @brin_minmax_consistent(ptr noundef %0) #0 {
  %2 = alloca ptr, align 8
  %3 = alloca ptr, align 8
  %4 = alloca ptr, align 8
  %5 = alloca ptr, align 8
  %6 = alloca i32, align 4
  %7 = alloca i32, align 4
  %8 = alloca i16, align 2
  %9 = alloca i64, align 8
  %10 = alloca i64, align 8
  %11 = alloca ptr, align 8
  store ptr %0, ptr %2, align 8
  call void @llvm.lifetime.start.p0(i64 8, ptr %3) #5
  %12 = load ptr, ptr %2, align 8
  %13 = getelementptr inbounds nuw %struct.FunctionCallInfoBaseData, ptr %12, i32 0, i32 6
  %14 = getelementptr inbounds [0 x %struct.NullableDatum], ptr %13, i64 0, i64 0
  %15 = getelementptr inbounds nuw %struct.NullableDatum, ptr %14, i32 0, i32 0
  %16 = load i64, ptr %15, align 8
  %17 = call ptr @DatumGetPointer(i64 noundef %16)
  store ptr %17, ptr %3, align 8
  call void @llvm.lifetime.start.p0(i64 8, ptr %4) #5
  %18 = load ptr, ptr %2, align 8
  %19 = getelementptr inbounds nuw %struct.FunctionCallInfoBaseData, ptr %18, i32 0, i32 6
  %20 = getelementptr inbounds [0 x %struct.NullableDatum], ptr %19, i64 0, i64 1
  %21 = getelementptr inbounds nuw %struct.NullableDatum, ptr %20, i32 0, i32 0
  %22 = load i64, ptr %21, align 8
  %23 = call ptr @DatumGetPointer(i64 noundef %22)
  store ptr %23, ptr %4, align 8
  call void @llvm.lifetime.start.p0(i64 8, ptr %5) #5
  %24 = load ptr, ptr %2, align 8
  %25 = getelementptr inbounds nuw %struct.FunctionCallInfoBaseData, ptr %24, i32 0, i32 6
  %26 = getelementptr inbounds [0 x %struct.NullableDatum], ptr %25, i64 0, i64 2
  %27 = getelementptr inbounds nuw %struct.NullableDatum, ptr %26, i32 0, i32 0
  %28 = load i64, ptr %27, align 8
  %29 = call ptr @DatumGetPointer(i64 noundef %28)
  store ptr %29, ptr %5, align 8
  call void @llvm.lifetime.start.p0(i64 4, ptr %6) #5
  %30 = load ptr, ptr %2, align 8
  %31 = getelementptr inbounds nuw %struct.FunctionCallInfoBaseData, ptr %30, i32 0, i32 3
  %32 = load i32, ptr %31, align 8
  store i32 %32, ptr %6, align 4
  call void @llvm.lifetime.start.p0(i64 4, ptr %7) #5
  call void @llvm.lifetime.start.p0(i64 2, ptr %8) #5
  call void @llvm.lifetime.start.p0(i64 8, ptr %9) #5
  call void @llvm.lifetime.start.p0(i64 8, ptr %10) #5
  call void @llvm.lifetime.start.p0(i64 8, ptr %11) #5
  %33 = load ptr, ptr %5, align 8
  %34 = getelementptr inbounds nuw %struct.ScanKeyData, ptr %33, i32 0, i32 1
  %35 = load i16, ptr %34, align 4
  store i16 %35, ptr %8, align 2
  %36 = load ptr, ptr %5, align 8
  %37 = getelementptr inbounds nuw %struct.ScanKeyData, ptr %36, i32 0, i32 3
  %38 = load i32, ptr %37, align 8
  store i32 %38, ptr %7, align 4
  %39 = load ptr, ptr %5, align 8
  %40 = getelementptr inbounds nuw %struct.ScanKeyData, ptr %39, i32 0, i32 6
  %41 = load i64, ptr %40, align 8
  store i64 %41, ptr %9, align 8
  %42 = load ptr, ptr %5, align 8
  %43 = getelementptr inbounds nuw %struct.ScanKeyData, ptr %42, i32 0, i32 2
  %44 = load i16, ptr %43, align 2
  %45 = zext i16 %44 to i32
  switch i32 %45, label %111 [
    i32 1, label %46
    i32 2, label %46
    i32 3, label %63
    i32 4, label %94
    i32 5, label %94
  ]

46:                                               ; preds = %1, %1
  %47 = load ptr, ptr %3, align 8
  %48 = load i16, ptr %8, align 2
  %49 = load i32, ptr %7, align 4
  %50 = load ptr, ptr %5, align 8
  %51 = getelementptr inbounds nuw %struct.ScanKeyData, ptr %50, i32 0, i32 2
  %52 = load i16, ptr %51, align 2
  %53 = call ptr @minmax_get_strategy_procinfo(ptr noundef %47, i16 noundef zeroext %48, i32 noundef %49, i16 noundef zeroext %52)
  store ptr %53, ptr %11, align 8
  %54 = load ptr, ptr %11, align 8
  %55 = load i32, ptr %6, align 4
  %56 = load ptr, ptr %4, align 8
  %57 = getelementptr inbounds nuw %struct.BrinValues, ptr %56, i32 0, i32 3
  %58 = load ptr, ptr %57, align 8
  %59 = getelementptr inbounds i64, ptr %58, i64 0
  %60 = load i64, ptr %59, align 8
  %61 = load i64, ptr %9, align 8
  %62 = call i64 @FunctionCall2Coll(ptr noundef %54, i32 noundef %55, i64 noundef %60, i64 noundef %61)
  store i64 %62, ptr %10, align 8
  br label %126

63:                                               ; preds = %1
  %64 = load ptr, ptr %3, align 8
  %65 = load i16, ptr %8, align 2
  %66 = load i32, ptr %7, align 4
  %67 = call ptr @minmax_get_strategy_procinfo(ptr noundef %64, i16 noundef zeroext %65, i32 noundef %66, i16 noundef zeroext 2)
  store ptr %67, ptr %11, align 8
  %68 = load ptr, ptr %11, align 8
  %69 = load i32, ptr %6, align 4
  %70 = load ptr, ptr %4, align 8
  %71 = getelementptr inbounds nuw %struct.BrinValues, ptr %70, i32 0, i32 3
  %72 = load ptr, ptr %71, align 8
  %73 = getelementptr inbounds i64, ptr %72, i64 0
  %74 = load i64, ptr %73, align 8
  %75 = load i64, ptr %9, align 8
  %76 = call i64 @FunctionCall2Coll(ptr noundef %68, i32 noundef %69, i64 noundef %74, i64 noundef %75)
  store i64 %76, ptr %10, align 8
  %77 = load i64, ptr %10, align 8
  %78 = call zeroext i1 @DatumGetBool(i64 noundef %77)
  br i1 %78, label %80, label %79

79:                                               ; preds = %63
  br label %126

80:                                               ; preds = %63
  %81 = load ptr, ptr %3, align 8
  %82 = load i16, ptr %8, align 2
  %83 = load i32, ptr %7, align 4
  %84 = call ptr @minmax_get_strategy_procinfo(ptr noundef %81, i16 noundef zeroext %82, i32 noundef %83, i16 noundef zeroext 4)
  store ptr %84, ptr %11, align 8
  %85 = load ptr, ptr %11, align 8
  %86 = load i32, ptr %6, align 4
  %87 = load ptr, ptr %4, align 8
  %88 = getelementptr inbounds nuw %struct.BrinValues, ptr %87, i32 0, i32 3
  %89 = load ptr, ptr %88, align 8
  %90 = getelementptr inbounds i64, ptr %89, i64 1
  %91 = load i64, ptr %90, align 8
  %92 = load i64, ptr %9, align 8
  %93 = call i64 @FunctionCall2Coll(ptr noundef %85, i32 noundef %86, i64 noundef %91, i64 noundef %92)
  store i64 %93, ptr %10, align 8
  br label %126

94:                                               ; preds = %1, %1
  %95 = load ptr, ptr %3, align 8
  %96 = load i16, ptr %8, align 2
  %97 = load i32, ptr %7, align 4
  %98 = load ptr, ptr %5, align 8
  %99 = getelementptr inbounds nuw %struct.ScanKeyData, ptr %98, i32 0, i32 2
  %100 = load i16, ptr %99, align 2
  %101 = call ptr @minmax_get_strategy_procinfo(ptr noundef %95, i16 noundef zeroext %96, i32 noundef %97, i16 noundef zeroext %100)
  store ptr %101, ptr %11, align 8
  %102 = load ptr, ptr %11, align 8
  %103 = load i32, ptr %6, align 4
  %104 = load ptr, ptr %4, align 8
  %105 = getelementptr inbounds nuw %struct.BrinValues, ptr %104, i32 0, i32 3
  %106 = load ptr, ptr %105, align 8
  %107 = getelementptr inbounds i64, ptr %106, i64 1
  %108 = load i64, ptr %107, align 8
  %109 = load i64, ptr %9, align 8
  %110 = call i64 @FunctionCall2Coll(ptr noundef %102, i32 noundef %103, i64 noundef %108, i64 noundef %109)
  store i64 %110, ptr %10, align 8
  br label %126

111:                                              ; preds = %1
  br label %112

112:                                              ; preds = %111
  br i1 true, label %113, label %115

113:                                              ; preds = %112
  %114 = call zeroext i1 @errstart_cold(i32 noundef 21, ptr noundef null) #6
  br i1 %114, label %117, label %123

115:                                              ; preds = %112
  %116 = call zeroext i1 @errstart(i32 noundef 21, ptr noundef null)
  br i1 %116, label %117, label %123

117:                                              ; preds = %115, %113
  %118 = load ptr, ptr %5, align 8
  %119 = getelementptr inbounds nuw %struct.ScanKeyData, ptr %118, i32 0, i32 2
  %120 = load i16, ptr %119, align 2
  %121 = zext i16 %120 to i32
  %122 = call i32 (ptr, ...) @errmsg_internal(ptr noundef @.str, i32 noundef %121)
  call void @errfinish(ptr noundef @.str.1, i32 noundef 195, ptr noundef @__func__.brin_minmax_consistent)
  br label %123

123:                                              ; preds = %117, %115, %113
  unreachable

124:                                              ; No predecessors!
  br label %125

125:                                              ; preds = %124
  store i64 0, ptr %10, align 8
  br label %126

126:                                              ; preds = %125, %94, %80, %79, %46
  %127 = load i64, ptr %10, align 8
  call void @llvm.lifetime.end.p0(i64 8, ptr %11) #5
  call void @llvm.lifetime.end.p0(i64 8, ptr %10) #5
  call void @llvm.lifetime.end.p0(i64 8, ptr %9) #5
  call void @llvm.lifetime.end.p0(i64 2, ptr %8) #5
  call void @llvm.lifetime.end.p0(i64 4, ptr %7) #5
  call void @llvm.lifetime.end.p0(i64 4, ptr %6) #5
  call void @llvm.lifetime.end.p0(i64 8, ptr %5) #5
  call void @llvm.lifetime.end.p0(i64 8, ptr %4) #5
  call void @llvm.lifetime.end.p0(i64 8, ptr %3) #5
  ret i64 %127
}