; Function Attrs: nounwind uwtable
define dso_local i64 @brin_minmax_consistent(ptr noundef readonly captures(none) %0) local_unnamed_addr #0 {
  %2 = getelementptr inbounds nuw i8, ptr %0, i64 32
  %3 = load i64, ptr %2, align 8
  %4 = inttoptr i64 %3 to ptr
  %5 = getelementptr inbounds nuw i8, ptr %0, i64 48
  %6 = load i64, ptr %5, align 8
  %7 = inttoptr i64 %6 to ptr
  %8 = getelementptr inbounds nuw i8, ptr %0, i64 64
  %9 = load i64, ptr %8, align 8
  %10 = inttoptr i64 %9 to ptr
  %11 = getelementptr inbounds nuw i8, ptr %0, i64 24
  %12 = load i32, ptr %11, align 8
  %13 = getelementptr inbounds nuw i8, ptr %10, i64 4
  %14 = load i16, ptr %13, align 4
  %15 = getelementptr inbounds nuw i8, ptr %10, i64 8
  %16 = load i32, ptr %15, align 8
  %17 = getelementptr inbounds nuw i8, ptr %10, i64 64
  %18 = load i64, ptr %17, align 8
  %19 = getelementptr inbounds nuw i8, ptr %10, i64 6
  %20 = load i16, ptr %19, align 2
  switch i16 %20, label %46 [
    i16 1, label %21
    i16 2, label %21
    i16 3, label %27
    i16 4, label %39
    i16 5, label %39
  ]

21:                                               ; preds = %1, %1
  %22 = tail call fastcc ptr @minmax_get_strategy_procinfo(ptr noundef %4, i16 noundef zeroext %14, i32 noundef %16, i16 noundef zeroext %20)
  %23 = getelementptr inbounds nuw i8, ptr %7, i64 8
  %24 = load ptr, ptr %23, align 8
  %25 = load i64, ptr %24, align 8
  %26 = tail call i64 @FunctionCall2Coll(ptr noundef nonnull %22, i32 noundef %12, i64 noundef %25, i64 noundef %18) #4
  br label %51

27:                                               ; preds = %1
  %28 = tail call fastcc ptr @minmax_get_strategy_procinfo(ptr noundef %4, i16 noundef zeroext %14, i32 noundef %16, i16 noundef zeroext 2)
  %29 = getelementptr inbounds nuw i8, ptr %7, i64 8
  %30 = load ptr, ptr %29, align 8
  %31 = load i64, ptr %30, align 8
  %32 = tail call i64 @FunctionCall2Coll(ptr noundef nonnull %28, i32 noundef %12, i64 noundef %31, i64 noundef %18) #4
  %.not = icmp eq i64 %32, 0
  br i1 %.not, label %51, label %33

33:                                               ; preds = %27
  %34 = tail call fastcc ptr @minmax_get_strategy_procinfo(ptr noundef %4, i16 noundef zeroext %14, i32 noundef %16, i16 noundef zeroext 4)
  %35 = load ptr, ptr %29, align 8
  %36 = getelementptr inbounds nuw i8, ptr %35, i64 8
  %37 = load i64, ptr %36, align 8
  %38 = tail call i64 @FunctionCall2Coll(ptr noundef nonnull %34, i32 noundef %12, i64 noundef %37, i64 noundef %18) #4
  br label %51

39:                                               ; preds = %1, %1
  %40 = tail call fastcc ptr @minmax_get_strategy_procinfo(ptr noundef %4, i16 noundef zeroext %14, i32 noundef %16, i16 noundef zeroext %20)
  %41 = getelementptr inbounds nuw i8, ptr %7, i64 8
  %42 = load ptr, ptr %41, align 8
  %43 = getelementptr inbounds nuw i8, ptr %42, i64 8
  %44 = load i64, ptr %43, align 8
  %45 = tail call i64 @FunctionCall2Coll(ptr noundef nonnull %40, i32 noundef %12, i64 noundef %44, i64 noundef %18) #4
  br label %51

46:                                               ; preds = %1
  %47 = tail call zeroext i1 @errstart_cold(i32 noundef 21, ptr noundef null) #5
  tail call void @llvm.assume(i1 %47)
  %48 = load i16, ptr %19, align 2
  %49 = zext i16 %48 to i32
  %50 = tail call i32 (ptr, ...) @errmsg_internal(ptr noundef nonnull @.str, i32 noundef %49) #4
  tail call void @errfinish(ptr noundef nonnull @.str.1, i32 noundef 195, ptr noundef nonnull @__func__.brin_minmax_consistent) #4
  unreachable

51:                                               ; preds = %27, %39, %33, %21
  %.0 = phi i64 [ %45, %39 ], [ %38, %33 ], [ 0, %27 ], [ %26, %21 ]
  ret i64 %.0
}